ARM GAS  /var/folders/19/48sc_t714fz_96wrj2kckpy80000gn/T//ccp3Ccky.s 			page 1


   1              		.cpu cortex-m4
   2              		.arch armv7e-m
   3              		.fpu fpv4-sp-d16
   4              		.eabi_attribute 27, 1
   5              		.eabi_attribute 28, 1
   6              		.eabi_attribute 20, 1
   7              		.eabi_attribute 21, 1
   8              		.eabi_attribute 23, 3
   9              		.eabi_attribute 24, 1
  10              		.eabi_attribute 25, 1
  11              		.eabi_attribute 26, 1
  12              		.eabi_attribute 30, 1
  13              		.eabi_attribute 34, 1
  14              		.eabi_attribute 18, 4
  15              		.file	"kernel.c"
  16              		.text
  17              	.Ltext0:
  18              		.cfi_sections	.debug_frame
  19              		.file 1 "Core/Src/kernel.c"
  20              		.section	.rodata.SVC_Handler_Main.str1.4,"aMS",%progbits,1
  21              		.align	2
  22              	.LC0:
  23 0000 53756363 		.ascii	"Success!\015\000"
  23      65737321 
  23      0D00
  24 000a 0000     		.align	2
  25              	.LC1:
  26 000c 4661696C 		.ascii	"Failure!\015\000"
  26      75726521 
  26      0D00
  27              		.section	.text.SVC_Handler_Main,"ax",%progbits
  28              		.align	1
  29              		.global	SVC_Handler_Main
  30              		.syntax unified
  31              		.thumb
  32              		.thumb_func
  34              	SVC_Handler_Main:
  35              	.LVL0:
  36              	.LFB133:
   1:Core/Src/kernel.c **** #include "stm32f4xx_hal.h"
   2:Core/Src/kernel.c **** #include "kernel.h"
   3:Core/Src/kernel.c **** 
   4:Core/Src/kernel.c **** uint32_t* MSP_INIT_VAL;
   5:Core/Src/kernel.c **** uint32_t* LAST_STACK;
   6:Core/Src/kernel.c **** int nThreads = 0;
   7:Core/Src/kernel.c **** thread lab3Thread;
   8:Core/Src/kernel.c **** 
   9:Core/Src/kernel.c **** void SVC_Handler_Main( unsigned int *svc_args ) {
  37              		.loc 1 9 49 view -0
  38              		.cfi_startproc
  39              		@ args = 0, pretend = 0, frame = 0
  40              		@ frame_needed = 0, uses_anonymous_args = 0
  41              		.loc 1 9 49 is_stmt 0 view .LVU1
  42 0000 08B5     		push	{r3, lr}
  43              		.cfi_def_cfa_offset 8
  44              		.cfi_offset 3, -8
  45              		.cfi_offset 14, -4
ARM GAS  /var/folders/19/48sc_t714fz_96wrj2kckpy80000gn/T//ccp3Ccky.s 			page 2


  10:Core/Src/kernel.c ****   unsigned int svc_number;
  46              		.loc 1 10 3 is_stmt 1 view .LVU2
  11:Core/Src/kernel.c ****   /*
  12:Core/Src/kernel.c ****   * Stack contains:
  13:Core/Src/kernel.c ****   * r0, r1, r2, r3, r12, r14, the return address and xPSR
  14:Core/Src/kernel.c ****   * First argument (r0) is svc_args[0]
  15:Core/Src/kernel.c ****   */
  16:Core/Src/kernel.c ****   svc_number = ( ( char * )svc_args[ 6 ] )[ -2 ] ;
  47              		.loc 1 16 3 view .LVU3
  48              		.loc 1 16 43 is_stmt 0 view .LVU4
  49 0002 8369     		ldr	r3, [r0, #24]
  50 0004 13F8023C 		ldrb	r3, [r3, #-2]	@ zero_extendqisi2
  51              	.LVL1:
  17:Core/Src/kernel.c ****   switch( svc_number )
  52              		.loc 1 17 3 is_stmt 1 view .LVU5
  53 0008 112B     		cmp	r3, #17
  54 000a 0BD0     		beq	.L2
  55 000c 152B     		cmp	r3, #21
  56 000e 0DD0     		beq	.L3
  57 0010 032B     		cmp	r3, #3
  58 0012 00D0     		beq	.L6
  59              	.LVL2:
  60              	.L1:
  18:Core/Src/kernel.c ****   {
  19:Core/Src/kernel.c ****     case RUN_FIRST_THREAD:
  20:Core/Src/kernel.c ****       __set_PSP((uint32_t) lab3Thread.sp);
  21:Core/Src/kernel.c ****       runFirstThread();
  22:Core/Src/kernel.c ****       break;
  23:Core/Src/kernel.c ****     case 17: //17 is sort of arbitrarily chosen
  24:Core/Src/kernel.c ****       printf("Success!\r\n");
  25:Core/Src/kernel.c ****       break;
  26:Core/Src/kernel.c ****     case 21:
  27:Core/Src/kernel.c ****       printf("Failure!\r\n");
  28:Core/Src/kernel.c ****       break;
  29:Core/Src/kernel.c ****     default: /* unknown SVC */
  30:Core/Src/kernel.c ****       break;
  31:Core/Src/kernel.c ****   }
  32:Core/Src/kernel.c **** }
  61              		.loc 1 32 1 is_stmt 0 view .LVU6
  62 0014 08BD     		pop	{r3, pc}
  63              	.LVL3:
  64              	.L6:
  20:Core/Src/kernel.c ****       runFirstThread();
  65              		.loc 1 20 7 is_stmt 1 view .LVU7
  20:Core/Src/kernel.c ****       runFirstThread();
  66              		.loc 1 20 38 is_stmt 0 view .LVU8
  67 0016 074B     		ldr	r3, .L7
  68              	.LVL4:
  20:Core/Src/kernel.c ****       runFirstThread();
  69              		.loc 1 20 38 view .LVU9
  70 0018 1B68     		ldr	r3, [r3]
  71              	.LVL5:
  72              	.LBB4:
  73              	.LBI4:
  74              		.file 2 "Drivers/CMSIS/Include/cmsis_gcc.h"
   1:Drivers/CMSIS/Include/cmsis_gcc.h **** /**************************************************************************//**
   2:Drivers/CMSIS/Include/cmsis_gcc.h ****  * @file     cmsis_gcc.h
ARM GAS  /var/folders/19/48sc_t714fz_96wrj2kckpy80000gn/T//ccp3Ccky.s 			page 3


   3:Drivers/CMSIS/Include/cmsis_gcc.h ****  * @brief    CMSIS compiler GCC header file
   4:Drivers/CMSIS/Include/cmsis_gcc.h ****  * @version  V5.0.4
   5:Drivers/CMSIS/Include/cmsis_gcc.h ****  * @date     09. April 2018
   6:Drivers/CMSIS/Include/cmsis_gcc.h ****  ******************************************************************************/
   7:Drivers/CMSIS/Include/cmsis_gcc.h **** /*
   8:Drivers/CMSIS/Include/cmsis_gcc.h ****  * Copyright (c) 2009-2018 Arm Limited. All rights reserved.
   9:Drivers/CMSIS/Include/cmsis_gcc.h ****  *
  10:Drivers/CMSIS/Include/cmsis_gcc.h ****  * SPDX-License-Identifier: Apache-2.0
  11:Drivers/CMSIS/Include/cmsis_gcc.h ****  *
  12:Drivers/CMSIS/Include/cmsis_gcc.h ****  * Licensed under the Apache License, Version 2.0 (the License); you may
  13:Drivers/CMSIS/Include/cmsis_gcc.h ****  * not use this file except in compliance with the License.
  14:Drivers/CMSIS/Include/cmsis_gcc.h ****  * You may obtain a copy of the License at
  15:Drivers/CMSIS/Include/cmsis_gcc.h ****  *
  16:Drivers/CMSIS/Include/cmsis_gcc.h ****  * www.apache.org/licenses/LICENSE-2.0
  17:Drivers/CMSIS/Include/cmsis_gcc.h ****  *
  18:Drivers/CMSIS/Include/cmsis_gcc.h ****  * Unless required by applicable law or agreed to in writing, software
  19:Drivers/CMSIS/Include/cmsis_gcc.h ****  * distributed under the License is distributed on an AS IS BASIS, WITHOUT
  20:Drivers/CMSIS/Include/cmsis_gcc.h ****  * WARRANTIES OR CONDITIONS OF ANY KIND, either express or implied.
  21:Drivers/CMSIS/Include/cmsis_gcc.h ****  * See the License for the specific language governing permissions and
  22:Drivers/CMSIS/Include/cmsis_gcc.h ****  * limitations under the License.
  23:Drivers/CMSIS/Include/cmsis_gcc.h ****  */
  24:Drivers/CMSIS/Include/cmsis_gcc.h **** 
  25:Drivers/CMSIS/Include/cmsis_gcc.h **** #ifndef __CMSIS_GCC_H
  26:Drivers/CMSIS/Include/cmsis_gcc.h **** #define __CMSIS_GCC_H
  27:Drivers/CMSIS/Include/cmsis_gcc.h **** 
  28:Drivers/CMSIS/Include/cmsis_gcc.h **** /* ignore some GCC warnings */
  29:Drivers/CMSIS/Include/cmsis_gcc.h **** #pragma GCC diagnostic push
  30:Drivers/CMSIS/Include/cmsis_gcc.h **** #pragma GCC diagnostic ignored "-Wsign-conversion"
  31:Drivers/CMSIS/Include/cmsis_gcc.h **** #pragma GCC diagnostic ignored "-Wconversion"
  32:Drivers/CMSIS/Include/cmsis_gcc.h **** #pragma GCC diagnostic ignored "-Wunused-parameter"
  33:Drivers/CMSIS/Include/cmsis_gcc.h **** 
  34:Drivers/CMSIS/Include/cmsis_gcc.h **** /* Fallback for __has_builtin */
  35:Drivers/CMSIS/Include/cmsis_gcc.h **** #ifndef __has_builtin
  36:Drivers/CMSIS/Include/cmsis_gcc.h ****   #define __has_builtin(x) (0)
  37:Drivers/CMSIS/Include/cmsis_gcc.h **** #endif
  38:Drivers/CMSIS/Include/cmsis_gcc.h **** 
  39:Drivers/CMSIS/Include/cmsis_gcc.h **** /* CMSIS compiler specific defines */
  40:Drivers/CMSIS/Include/cmsis_gcc.h **** #ifndef   __ASM
  41:Drivers/CMSIS/Include/cmsis_gcc.h ****   #define __ASM                                  __asm
  42:Drivers/CMSIS/Include/cmsis_gcc.h **** #endif
  43:Drivers/CMSIS/Include/cmsis_gcc.h **** #ifndef   __INLINE
  44:Drivers/CMSIS/Include/cmsis_gcc.h ****   #define __INLINE                               inline
  45:Drivers/CMSIS/Include/cmsis_gcc.h **** #endif
  46:Drivers/CMSIS/Include/cmsis_gcc.h **** #ifndef   __STATIC_INLINE
  47:Drivers/CMSIS/Include/cmsis_gcc.h ****   #define __STATIC_INLINE                        static inline
  48:Drivers/CMSIS/Include/cmsis_gcc.h **** #endif
  49:Drivers/CMSIS/Include/cmsis_gcc.h **** #ifndef   __STATIC_FORCEINLINE                 
  50:Drivers/CMSIS/Include/cmsis_gcc.h ****   #define __STATIC_FORCEINLINE                   __attribute__((always_inline)) static inline
  51:Drivers/CMSIS/Include/cmsis_gcc.h **** #endif                                           
  52:Drivers/CMSIS/Include/cmsis_gcc.h **** #ifndef   __NO_RETURN
  53:Drivers/CMSIS/Include/cmsis_gcc.h ****   #define __NO_RETURN                            __attribute__((__noreturn__))
  54:Drivers/CMSIS/Include/cmsis_gcc.h **** #endif
  55:Drivers/CMSIS/Include/cmsis_gcc.h **** #ifndef   __USED
  56:Drivers/CMSIS/Include/cmsis_gcc.h ****   #define __USED                                 __attribute__((used))
  57:Drivers/CMSIS/Include/cmsis_gcc.h **** #endif
  58:Drivers/CMSIS/Include/cmsis_gcc.h **** #ifndef   __WEAK
  59:Drivers/CMSIS/Include/cmsis_gcc.h ****   #define __WEAK                                 __attribute__((weak))
ARM GAS  /var/folders/19/48sc_t714fz_96wrj2kckpy80000gn/T//ccp3Ccky.s 			page 4


  60:Drivers/CMSIS/Include/cmsis_gcc.h **** #endif
  61:Drivers/CMSIS/Include/cmsis_gcc.h **** #ifndef   __PACKED
  62:Drivers/CMSIS/Include/cmsis_gcc.h ****   #define __PACKED                               __attribute__((packed, aligned(1)))
  63:Drivers/CMSIS/Include/cmsis_gcc.h **** #endif
  64:Drivers/CMSIS/Include/cmsis_gcc.h **** #ifndef   __PACKED_STRUCT
  65:Drivers/CMSIS/Include/cmsis_gcc.h ****   #define __PACKED_STRUCT                        struct __attribute__((packed, aligned(1)))
  66:Drivers/CMSIS/Include/cmsis_gcc.h **** #endif
  67:Drivers/CMSIS/Include/cmsis_gcc.h **** #ifndef   __PACKED_UNION
  68:Drivers/CMSIS/Include/cmsis_gcc.h ****   #define __PACKED_UNION                         union __attribute__((packed, aligned(1)))
  69:Drivers/CMSIS/Include/cmsis_gcc.h **** #endif
  70:Drivers/CMSIS/Include/cmsis_gcc.h **** #ifndef   __UNALIGNED_UINT32        /* deprecated */
  71:Drivers/CMSIS/Include/cmsis_gcc.h ****   #pragma GCC diagnostic push
  72:Drivers/CMSIS/Include/cmsis_gcc.h ****   #pragma GCC diagnostic ignored "-Wpacked"
  73:Drivers/CMSIS/Include/cmsis_gcc.h ****   #pragma GCC diagnostic ignored "-Wattributes"
  74:Drivers/CMSIS/Include/cmsis_gcc.h ****   struct __attribute__((packed)) T_UINT32 { uint32_t v; };
  75:Drivers/CMSIS/Include/cmsis_gcc.h ****   #pragma GCC diagnostic pop
  76:Drivers/CMSIS/Include/cmsis_gcc.h ****   #define __UNALIGNED_UINT32(x)                  (((struct T_UINT32 *)(x))->v)
  77:Drivers/CMSIS/Include/cmsis_gcc.h **** #endif
  78:Drivers/CMSIS/Include/cmsis_gcc.h **** #ifndef   __UNALIGNED_UINT16_WRITE
  79:Drivers/CMSIS/Include/cmsis_gcc.h ****   #pragma GCC diagnostic push
  80:Drivers/CMSIS/Include/cmsis_gcc.h ****   #pragma GCC diagnostic ignored "-Wpacked"
  81:Drivers/CMSIS/Include/cmsis_gcc.h ****   #pragma GCC diagnostic ignored "-Wattributes"
  82:Drivers/CMSIS/Include/cmsis_gcc.h ****   __PACKED_STRUCT T_UINT16_WRITE { uint16_t v; };
  83:Drivers/CMSIS/Include/cmsis_gcc.h ****   #pragma GCC diagnostic pop
  84:Drivers/CMSIS/Include/cmsis_gcc.h ****   #define __UNALIGNED_UINT16_WRITE(addr, val)    (void)((((struct T_UINT16_WRITE *)(void *)(addr))-
  85:Drivers/CMSIS/Include/cmsis_gcc.h **** #endif
  86:Drivers/CMSIS/Include/cmsis_gcc.h **** #ifndef   __UNALIGNED_UINT16_READ
  87:Drivers/CMSIS/Include/cmsis_gcc.h ****   #pragma GCC diagnostic push
  88:Drivers/CMSIS/Include/cmsis_gcc.h ****   #pragma GCC diagnostic ignored "-Wpacked"
  89:Drivers/CMSIS/Include/cmsis_gcc.h ****   #pragma GCC diagnostic ignored "-Wattributes"
  90:Drivers/CMSIS/Include/cmsis_gcc.h ****   __PACKED_STRUCT T_UINT16_READ { uint16_t v; };
  91:Drivers/CMSIS/Include/cmsis_gcc.h ****   #pragma GCC diagnostic pop
  92:Drivers/CMSIS/Include/cmsis_gcc.h ****   #define __UNALIGNED_UINT16_READ(addr)          (((const struct T_UINT16_READ *)(const void *)(add
  93:Drivers/CMSIS/Include/cmsis_gcc.h **** #endif
  94:Drivers/CMSIS/Include/cmsis_gcc.h **** #ifndef   __UNALIGNED_UINT32_WRITE
  95:Drivers/CMSIS/Include/cmsis_gcc.h ****   #pragma GCC diagnostic push
  96:Drivers/CMSIS/Include/cmsis_gcc.h ****   #pragma GCC diagnostic ignored "-Wpacked"
  97:Drivers/CMSIS/Include/cmsis_gcc.h ****   #pragma GCC diagnostic ignored "-Wattributes"
  98:Drivers/CMSIS/Include/cmsis_gcc.h ****   __PACKED_STRUCT T_UINT32_WRITE { uint32_t v; };
  99:Drivers/CMSIS/Include/cmsis_gcc.h ****   #pragma GCC diagnostic pop
 100:Drivers/CMSIS/Include/cmsis_gcc.h ****   #define __UNALIGNED_UINT32_WRITE(addr, val)    (void)((((struct T_UINT32_WRITE *)(void *)(addr))-
 101:Drivers/CMSIS/Include/cmsis_gcc.h **** #endif
 102:Drivers/CMSIS/Include/cmsis_gcc.h **** #ifndef   __UNALIGNED_UINT32_READ
 103:Drivers/CMSIS/Include/cmsis_gcc.h ****   #pragma GCC diagnostic push
 104:Drivers/CMSIS/Include/cmsis_gcc.h ****   #pragma GCC diagnostic ignored "-Wpacked"
 105:Drivers/CMSIS/Include/cmsis_gcc.h ****   #pragma GCC diagnostic ignored "-Wattributes"
 106:Drivers/CMSIS/Include/cmsis_gcc.h ****   __PACKED_STRUCT T_UINT32_READ { uint32_t v; };
 107:Drivers/CMSIS/Include/cmsis_gcc.h ****   #pragma GCC diagnostic pop
 108:Drivers/CMSIS/Include/cmsis_gcc.h ****   #define __UNALIGNED_UINT32_READ(addr)          (((const struct T_UINT32_READ *)(const void *)(add
 109:Drivers/CMSIS/Include/cmsis_gcc.h **** #endif
 110:Drivers/CMSIS/Include/cmsis_gcc.h **** #ifndef   __ALIGNED
 111:Drivers/CMSIS/Include/cmsis_gcc.h ****   #define __ALIGNED(x)                           __attribute__((aligned(x)))
 112:Drivers/CMSIS/Include/cmsis_gcc.h **** #endif
 113:Drivers/CMSIS/Include/cmsis_gcc.h **** #ifndef   __RESTRICT
 114:Drivers/CMSIS/Include/cmsis_gcc.h ****   #define __RESTRICT                             __restrict
 115:Drivers/CMSIS/Include/cmsis_gcc.h **** #endif
 116:Drivers/CMSIS/Include/cmsis_gcc.h **** 
ARM GAS  /var/folders/19/48sc_t714fz_96wrj2kckpy80000gn/T//ccp3Ccky.s 			page 5


 117:Drivers/CMSIS/Include/cmsis_gcc.h **** 
 118:Drivers/CMSIS/Include/cmsis_gcc.h **** /* ###########################  Core Function Access  ########################### */
 119:Drivers/CMSIS/Include/cmsis_gcc.h **** /** \ingroup  CMSIS_Core_FunctionInterface
 120:Drivers/CMSIS/Include/cmsis_gcc.h ****     \defgroup CMSIS_Core_RegAccFunctions CMSIS Core Register Access Functions
 121:Drivers/CMSIS/Include/cmsis_gcc.h ****   @{
 122:Drivers/CMSIS/Include/cmsis_gcc.h ****  */
 123:Drivers/CMSIS/Include/cmsis_gcc.h **** 
 124:Drivers/CMSIS/Include/cmsis_gcc.h **** /**
 125:Drivers/CMSIS/Include/cmsis_gcc.h ****   \brief   Enable IRQ Interrupts
 126:Drivers/CMSIS/Include/cmsis_gcc.h ****   \details Enables IRQ interrupts by clearing the I-bit in the CPSR.
 127:Drivers/CMSIS/Include/cmsis_gcc.h ****            Can only be executed in Privileged modes.
 128:Drivers/CMSIS/Include/cmsis_gcc.h ****  */
 129:Drivers/CMSIS/Include/cmsis_gcc.h **** __STATIC_FORCEINLINE void __enable_irq(void)
 130:Drivers/CMSIS/Include/cmsis_gcc.h **** {
 131:Drivers/CMSIS/Include/cmsis_gcc.h ****   __ASM volatile ("cpsie i" : : : "memory");
 132:Drivers/CMSIS/Include/cmsis_gcc.h **** }
 133:Drivers/CMSIS/Include/cmsis_gcc.h **** 
 134:Drivers/CMSIS/Include/cmsis_gcc.h **** 
 135:Drivers/CMSIS/Include/cmsis_gcc.h **** /**
 136:Drivers/CMSIS/Include/cmsis_gcc.h ****   \brief   Disable IRQ Interrupts
 137:Drivers/CMSIS/Include/cmsis_gcc.h ****   \details Disables IRQ interrupts by setting the I-bit in the CPSR.
 138:Drivers/CMSIS/Include/cmsis_gcc.h ****            Can only be executed in Privileged modes.
 139:Drivers/CMSIS/Include/cmsis_gcc.h ****  */
 140:Drivers/CMSIS/Include/cmsis_gcc.h **** __STATIC_FORCEINLINE void __disable_irq(void)
 141:Drivers/CMSIS/Include/cmsis_gcc.h **** {
 142:Drivers/CMSIS/Include/cmsis_gcc.h ****   __ASM volatile ("cpsid i" : : : "memory");
 143:Drivers/CMSIS/Include/cmsis_gcc.h **** }
 144:Drivers/CMSIS/Include/cmsis_gcc.h **** 
 145:Drivers/CMSIS/Include/cmsis_gcc.h **** 
 146:Drivers/CMSIS/Include/cmsis_gcc.h **** /**
 147:Drivers/CMSIS/Include/cmsis_gcc.h ****   \brief   Get Control Register
 148:Drivers/CMSIS/Include/cmsis_gcc.h ****   \details Returns the content of the Control Register.
 149:Drivers/CMSIS/Include/cmsis_gcc.h ****   \return               Control Register value
 150:Drivers/CMSIS/Include/cmsis_gcc.h ****  */
 151:Drivers/CMSIS/Include/cmsis_gcc.h **** __STATIC_FORCEINLINE uint32_t __get_CONTROL(void)
 152:Drivers/CMSIS/Include/cmsis_gcc.h **** {
 153:Drivers/CMSIS/Include/cmsis_gcc.h ****   uint32_t result;
 154:Drivers/CMSIS/Include/cmsis_gcc.h **** 
 155:Drivers/CMSIS/Include/cmsis_gcc.h ****   __ASM volatile ("MRS %0, control" : "=r" (result) );
 156:Drivers/CMSIS/Include/cmsis_gcc.h ****   return(result);
 157:Drivers/CMSIS/Include/cmsis_gcc.h **** }
 158:Drivers/CMSIS/Include/cmsis_gcc.h **** 
 159:Drivers/CMSIS/Include/cmsis_gcc.h **** 
 160:Drivers/CMSIS/Include/cmsis_gcc.h **** #if (defined (__ARM_FEATURE_CMSE ) && (__ARM_FEATURE_CMSE == 3))
 161:Drivers/CMSIS/Include/cmsis_gcc.h **** /**
 162:Drivers/CMSIS/Include/cmsis_gcc.h ****   \brief   Get Control Register (non-secure)
 163:Drivers/CMSIS/Include/cmsis_gcc.h ****   \details Returns the content of the non-secure Control Register when in secure mode.
 164:Drivers/CMSIS/Include/cmsis_gcc.h ****   \return               non-secure Control Register value
 165:Drivers/CMSIS/Include/cmsis_gcc.h ****  */
 166:Drivers/CMSIS/Include/cmsis_gcc.h **** __STATIC_FORCEINLINE uint32_t __TZ_get_CONTROL_NS(void)
 167:Drivers/CMSIS/Include/cmsis_gcc.h **** {
 168:Drivers/CMSIS/Include/cmsis_gcc.h ****   uint32_t result;
 169:Drivers/CMSIS/Include/cmsis_gcc.h **** 
 170:Drivers/CMSIS/Include/cmsis_gcc.h ****   __ASM volatile ("MRS %0, control_ns" : "=r" (result) );
 171:Drivers/CMSIS/Include/cmsis_gcc.h ****   return(result);
 172:Drivers/CMSIS/Include/cmsis_gcc.h **** }
 173:Drivers/CMSIS/Include/cmsis_gcc.h **** #endif
ARM GAS  /var/folders/19/48sc_t714fz_96wrj2kckpy80000gn/T//ccp3Ccky.s 			page 6


 174:Drivers/CMSIS/Include/cmsis_gcc.h **** 
 175:Drivers/CMSIS/Include/cmsis_gcc.h **** 
 176:Drivers/CMSIS/Include/cmsis_gcc.h **** /**
 177:Drivers/CMSIS/Include/cmsis_gcc.h ****   \brief   Set Control Register
 178:Drivers/CMSIS/Include/cmsis_gcc.h ****   \details Writes the given value to the Control Register.
 179:Drivers/CMSIS/Include/cmsis_gcc.h ****   \param [in]    control  Control Register value to set
 180:Drivers/CMSIS/Include/cmsis_gcc.h ****  */
 181:Drivers/CMSIS/Include/cmsis_gcc.h **** __STATIC_FORCEINLINE void __set_CONTROL(uint32_t control)
 182:Drivers/CMSIS/Include/cmsis_gcc.h **** {
 183:Drivers/CMSIS/Include/cmsis_gcc.h ****   __ASM volatile ("MSR control, %0" : : "r" (control) : "memory");
 184:Drivers/CMSIS/Include/cmsis_gcc.h **** }
 185:Drivers/CMSIS/Include/cmsis_gcc.h **** 
 186:Drivers/CMSIS/Include/cmsis_gcc.h **** 
 187:Drivers/CMSIS/Include/cmsis_gcc.h **** #if (defined (__ARM_FEATURE_CMSE ) && (__ARM_FEATURE_CMSE == 3))
 188:Drivers/CMSIS/Include/cmsis_gcc.h **** /**
 189:Drivers/CMSIS/Include/cmsis_gcc.h ****   \brief   Set Control Register (non-secure)
 190:Drivers/CMSIS/Include/cmsis_gcc.h ****   \details Writes the given value to the non-secure Control Register when in secure state.
 191:Drivers/CMSIS/Include/cmsis_gcc.h ****   \param [in]    control  Control Register value to set
 192:Drivers/CMSIS/Include/cmsis_gcc.h ****  */
 193:Drivers/CMSIS/Include/cmsis_gcc.h **** __STATIC_FORCEINLINE void __TZ_set_CONTROL_NS(uint32_t control)
 194:Drivers/CMSIS/Include/cmsis_gcc.h **** {
 195:Drivers/CMSIS/Include/cmsis_gcc.h ****   __ASM volatile ("MSR control_ns, %0" : : "r" (control) : "memory");
 196:Drivers/CMSIS/Include/cmsis_gcc.h **** }
 197:Drivers/CMSIS/Include/cmsis_gcc.h **** #endif
 198:Drivers/CMSIS/Include/cmsis_gcc.h **** 
 199:Drivers/CMSIS/Include/cmsis_gcc.h **** 
 200:Drivers/CMSIS/Include/cmsis_gcc.h **** /**
 201:Drivers/CMSIS/Include/cmsis_gcc.h ****   \brief   Get IPSR Register
 202:Drivers/CMSIS/Include/cmsis_gcc.h ****   \details Returns the content of the IPSR Register.
 203:Drivers/CMSIS/Include/cmsis_gcc.h ****   \return               IPSR Register value
 204:Drivers/CMSIS/Include/cmsis_gcc.h ****  */
 205:Drivers/CMSIS/Include/cmsis_gcc.h **** __STATIC_FORCEINLINE uint32_t __get_IPSR(void)
 206:Drivers/CMSIS/Include/cmsis_gcc.h **** {
 207:Drivers/CMSIS/Include/cmsis_gcc.h ****   uint32_t result;
 208:Drivers/CMSIS/Include/cmsis_gcc.h **** 
 209:Drivers/CMSIS/Include/cmsis_gcc.h ****   __ASM volatile ("MRS %0, ipsr" : "=r" (result) );
 210:Drivers/CMSIS/Include/cmsis_gcc.h ****   return(result);
 211:Drivers/CMSIS/Include/cmsis_gcc.h **** }
 212:Drivers/CMSIS/Include/cmsis_gcc.h **** 
 213:Drivers/CMSIS/Include/cmsis_gcc.h **** 
 214:Drivers/CMSIS/Include/cmsis_gcc.h **** /**
 215:Drivers/CMSIS/Include/cmsis_gcc.h ****   \brief   Get APSR Register
 216:Drivers/CMSIS/Include/cmsis_gcc.h ****   \details Returns the content of the APSR Register.
 217:Drivers/CMSIS/Include/cmsis_gcc.h ****   \return               APSR Register value
 218:Drivers/CMSIS/Include/cmsis_gcc.h ****  */
 219:Drivers/CMSIS/Include/cmsis_gcc.h **** __STATIC_FORCEINLINE uint32_t __get_APSR(void)
 220:Drivers/CMSIS/Include/cmsis_gcc.h **** {
 221:Drivers/CMSIS/Include/cmsis_gcc.h ****   uint32_t result;
 222:Drivers/CMSIS/Include/cmsis_gcc.h **** 
 223:Drivers/CMSIS/Include/cmsis_gcc.h ****   __ASM volatile ("MRS %0, apsr" : "=r" (result) );
 224:Drivers/CMSIS/Include/cmsis_gcc.h ****   return(result);
 225:Drivers/CMSIS/Include/cmsis_gcc.h **** }
 226:Drivers/CMSIS/Include/cmsis_gcc.h **** 
 227:Drivers/CMSIS/Include/cmsis_gcc.h **** 
 228:Drivers/CMSIS/Include/cmsis_gcc.h **** /**
 229:Drivers/CMSIS/Include/cmsis_gcc.h ****   \brief   Get xPSR Register
 230:Drivers/CMSIS/Include/cmsis_gcc.h ****   \details Returns the content of the xPSR Register.
ARM GAS  /var/folders/19/48sc_t714fz_96wrj2kckpy80000gn/T//ccp3Ccky.s 			page 7


 231:Drivers/CMSIS/Include/cmsis_gcc.h ****   \return               xPSR Register value
 232:Drivers/CMSIS/Include/cmsis_gcc.h ****  */
 233:Drivers/CMSIS/Include/cmsis_gcc.h **** __STATIC_FORCEINLINE uint32_t __get_xPSR(void)
 234:Drivers/CMSIS/Include/cmsis_gcc.h **** {
 235:Drivers/CMSIS/Include/cmsis_gcc.h ****   uint32_t result;
 236:Drivers/CMSIS/Include/cmsis_gcc.h **** 
 237:Drivers/CMSIS/Include/cmsis_gcc.h ****   __ASM volatile ("MRS %0, xpsr" : "=r" (result) );
 238:Drivers/CMSIS/Include/cmsis_gcc.h ****   return(result);
 239:Drivers/CMSIS/Include/cmsis_gcc.h **** }
 240:Drivers/CMSIS/Include/cmsis_gcc.h **** 
 241:Drivers/CMSIS/Include/cmsis_gcc.h **** 
 242:Drivers/CMSIS/Include/cmsis_gcc.h **** /**
 243:Drivers/CMSIS/Include/cmsis_gcc.h ****   \brief   Get Process Stack Pointer
 244:Drivers/CMSIS/Include/cmsis_gcc.h ****   \details Returns the current value of the Process Stack Pointer (PSP).
 245:Drivers/CMSIS/Include/cmsis_gcc.h ****   \return               PSP Register value
 246:Drivers/CMSIS/Include/cmsis_gcc.h ****  */
 247:Drivers/CMSIS/Include/cmsis_gcc.h **** __STATIC_FORCEINLINE uint32_t __get_PSP(void)
 248:Drivers/CMSIS/Include/cmsis_gcc.h **** {
 249:Drivers/CMSIS/Include/cmsis_gcc.h ****   uint32_t result;
 250:Drivers/CMSIS/Include/cmsis_gcc.h **** 
 251:Drivers/CMSIS/Include/cmsis_gcc.h ****   __ASM volatile ("MRS %0, psp"  : "=r" (result) );
 252:Drivers/CMSIS/Include/cmsis_gcc.h ****   return(result);
 253:Drivers/CMSIS/Include/cmsis_gcc.h **** }
 254:Drivers/CMSIS/Include/cmsis_gcc.h **** 
 255:Drivers/CMSIS/Include/cmsis_gcc.h **** 
 256:Drivers/CMSIS/Include/cmsis_gcc.h **** #if (defined (__ARM_FEATURE_CMSE ) && (__ARM_FEATURE_CMSE == 3))
 257:Drivers/CMSIS/Include/cmsis_gcc.h **** /**
 258:Drivers/CMSIS/Include/cmsis_gcc.h ****   \brief   Get Process Stack Pointer (non-secure)
 259:Drivers/CMSIS/Include/cmsis_gcc.h ****   \details Returns the current value of the non-secure Process Stack Pointer (PSP) when in secure s
 260:Drivers/CMSIS/Include/cmsis_gcc.h ****   \return               PSP Register value
 261:Drivers/CMSIS/Include/cmsis_gcc.h ****  */
 262:Drivers/CMSIS/Include/cmsis_gcc.h **** __STATIC_FORCEINLINE uint32_t __TZ_get_PSP_NS(void)
 263:Drivers/CMSIS/Include/cmsis_gcc.h **** {
 264:Drivers/CMSIS/Include/cmsis_gcc.h ****   uint32_t result;
 265:Drivers/CMSIS/Include/cmsis_gcc.h **** 
 266:Drivers/CMSIS/Include/cmsis_gcc.h ****   __ASM volatile ("MRS %0, psp_ns"  : "=r" (result) );
 267:Drivers/CMSIS/Include/cmsis_gcc.h ****   return(result);
 268:Drivers/CMSIS/Include/cmsis_gcc.h **** }
 269:Drivers/CMSIS/Include/cmsis_gcc.h **** #endif
 270:Drivers/CMSIS/Include/cmsis_gcc.h **** 
 271:Drivers/CMSIS/Include/cmsis_gcc.h **** 
 272:Drivers/CMSIS/Include/cmsis_gcc.h **** /**
 273:Drivers/CMSIS/Include/cmsis_gcc.h ****   \brief   Set Process Stack Pointer
 274:Drivers/CMSIS/Include/cmsis_gcc.h ****   \details Assigns the given value to the Process Stack Pointer (PSP).
 275:Drivers/CMSIS/Include/cmsis_gcc.h ****   \param [in]    topOfProcStack  Process Stack Pointer value to set
 276:Drivers/CMSIS/Include/cmsis_gcc.h ****  */
 277:Drivers/CMSIS/Include/cmsis_gcc.h **** __STATIC_FORCEINLINE void __set_PSP(uint32_t topOfProcStack)
  75              		.loc 2 277 27 is_stmt 1 view .LVU10
  76              	.LBB5:
 278:Drivers/CMSIS/Include/cmsis_gcc.h **** {
 279:Drivers/CMSIS/Include/cmsis_gcc.h ****   __ASM volatile ("MSR psp, %0" : : "r" (topOfProcStack) : );
  77              		.loc 2 279 3 view .LVU11
  78              		.syntax unified
  79              	@ 279 "Drivers/CMSIS/Include/cmsis_gcc.h" 1
  80 001a 83F30988 		MSR psp, r3
  81              	@ 0 "" 2
  82              	.LVL6:
ARM GAS  /var/folders/19/48sc_t714fz_96wrj2kckpy80000gn/T//ccp3Ccky.s 			page 8


  83              		.loc 2 279 3 is_stmt 0 view .LVU12
  84              		.thumb
  85              		.syntax unified
  86              	.LBE5:
  87              	.LBE4:
  21:Core/Src/kernel.c ****       break;
  88              		.loc 1 21 7 is_stmt 1 view .LVU13
  89 001e FFF7FEFF 		bl	runFirstThread
  90              	.LVL7:
  22:Core/Src/kernel.c ****     case 17: //17 is sort of arbitrarily chosen
  91              		.loc 1 22 7 view .LVU14
  92 0022 F7E7     		b	.L1
  93              	.LVL8:
  94              	.L2:
  24:Core/Src/kernel.c ****       break;
  95              		.loc 1 24 7 view .LVU15
  96 0024 0448     		ldr	r0, .L7+4
  97              	.LVL9:
  24:Core/Src/kernel.c ****       break;
  98              		.loc 1 24 7 is_stmt 0 view .LVU16
  99 0026 FFF7FEFF 		bl	puts
 100              	.LVL10:
  25:Core/Src/kernel.c ****     case 21:
 101              		.loc 1 25 7 is_stmt 1 view .LVU17
 102 002a F3E7     		b	.L1
 103              	.LVL11:
 104              	.L3:
  27:Core/Src/kernel.c ****       break;
 105              		.loc 1 27 7 view .LVU18
 106 002c 0348     		ldr	r0, .L7+8
 107              	.LVL12:
  27:Core/Src/kernel.c ****       break;
 108              		.loc 1 27 7 is_stmt 0 view .LVU19
 109 002e FFF7FEFF 		bl	puts
 110              	.LVL13:
  28:Core/Src/kernel.c ****     default: /* unknown SVC */
 111              		.loc 1 28 7 is_stmt 1 view .LVU20
 112              		.loc 1 32 1 is_stmt 0 view .LVU21
 113 0032 EFE7     		b	.L1
 114              	.L8:
 115              		.align	2
 116              	.L7:
 117 0034 00000000 		.word	lab3Thread
 118 0038 00000000 		.word	.LC0
 119 003c 0C000000 		.word	.LC1
 120              		.cfi_endproc
 121              	.LFE133:
 123              		.section	.text.allocate_stack,"ax",%progbits
 124              		.align	1
 125              		.global	allocate_stack
 126              		.syntax unified
 127              		.thumb
 128              		.thumb_func
 130              	allocate_stack:
 131              	.LFB134:
  33:Core/Src/kernel.c **** 
  34:Core/Src/kernel.c **** // Allocate a new stack
ARM GAS  /var/folders/19/48sc_t714fz_96wrj2kckpy80000gn/T//ccp3Ccky.s 			page 9


  35:Core/Src/kernel.c **** uint32_t* allocate_stack() {
 132              		.loc 1 35 28 is_stmt 1 view -0
 133              		.cfi_startproc
 134              		@ args = 0, pretend = 0, frame = 0
 135              		@ frame_needed = 0, uses_anonymous_args = 0
 136              		@ link register save eliminated.
  36:Core/Src/kernel.c ****     if ((nThreads * THREAD_SIZE) + STACK_SIZE > MAX_STACK_SIZE) {
 137              		.loc 1 36 5 view .LVU23
 138              		.loc 1 36 34 is_stmt 0 view .LVU24
 139 0000 084B     		ldr	r3, .L12
 140 0002 1B68     		ldr	r3, [r3]
 141 0004 0133     		adds	r3, r3, #1
 142 0006 9A02     		lsls	r2, r3, #10
 143              		.loc 1 36 8 view .LVU25
 144 0008 B2F5804F 		cmp	r2, #16384
 145 000c 07DC     		bgt	.L11
  37:Core/Src/kernel.c ****         return NULL;
  38:Core/Src/kernel.c ****     }
  39:Core/Src/kernel.c **** 
  40:Core/Src/kernel.c ****     LAST_STACK -= THREAD_SIZE;
 146              		.loc 1 40 5 is_stmt 1 view .LVU26
 147              		.loc 1 40 16 is_stmt 0 view .LVU27
 148 000e 064A     		ldr	r2, .L12+4
 149 0010 1068     		ldr	r0, [r2]
 150 0012 A0F58051 		sub	r1, r0, #4096
 151 0016 1160     		str	r1, [r2]
  41:Core/Src/kernel.c ****     nThreads += 1;
 152              		.loc 1 41 5 is_stmt 1 view .LVU28
 153              		.loc 1 41 14 is_stmt 0 view .LVU29
 154 0018 024A     		ldr	r2, .L12
 155 001a 1360     		str	r3, [r2]
  42:Core/Src/kernel.c **** 
  43:Core/Src/kernel.c ****     uint32_t* topOfStack = LAST_STACK + THREAD_SIZE; 
 156              		.loc 1 43 5 is_stmt 1 view .LVU30
 157              	.LVL14:
  44:Core/Src/kernel.c **** 
  45:Core/Src/kernel.c ****     return topOfStack;
 158              		.loc 1 45 5 view .LVU31
 159              		.loc 1 45 12 is_stmt 0 view .LVU32
 160 001c 7047     		bx	lr
 161              	.LVL15:
 162              	.L11:
  37:Core/Src/kernel.c ****     }
 163              		.loc 1 37 16 view .LVU33
 164 001e 0020     		movs	r0, #0
  46:Core/Src/kernel.c **** }
 165              		.loc 1 46 1 view .LVU34
 166 0020 7047     		bx	lr
 167              	.L13:
 168 0022 00BF     		.align	2
 169              	.L12:
 170 0024 00000000 		.word	nThreads
 171 0028 00000000 		.word	LAST_STACK
 172              		.cfi_endproc
 173              	.LFE134:
 175              		.section	.text.osCreateThread,"ax",%progbits
 176              		.align	1
ARM GAS  /var/folders/19/48sc_t714fz_96wrj2kckpy80000gn/T//ccp3Ccky.s 			page 10


 177              		.global	osCreateThread
 178              		.syntax unified
 179              		.thumb
 180              		.thumb_func
 182              	osCreateThread:
 183              	.LVL16:
 184              	.LFB135:
  47:Core/Src/kernel.c **** 
  48:Core/Src/kernel.c **** // Creating a new thread
  49:Core/Src/kernel.c **** bool osCreateThread(void* fncPtr) {
 185              		.loc 1 49 35 is_stmt 1 view -0
 186              		.cfi_startproc
 187              		@ args = 0, pretend = 0, frame = 0
 188              		@ frame_needed = 0, uses_anonymous_args = 0
 189              		.loc 1 49 35 is_stmt 0 view .LVU36
 190 0000 10B5     		push	{r4, lr}
 191              		.cfi_def_cfa_offset 8
 192              		.cfi_offset 4, -8
 193              		.cfi_offset 14, -4
 194 0002 0446     		mov	r4, r0
  50:Core/Src/kernel.c ****     uint32_t* stackPtr = allocate_stack();
 195              		.loc 1 50 5 is_stmt 1 view .LVU37
 196              		.loc 1 50 26 is_stmt 0 view .LVU38
 197 0004 FFF7FEFF 		bl	allocate_stack
 198              	.LVL17:
  51:Core/Src/kernel.c **** 
  52:Core/Src/kernel.c ****     if (stackPtr == NULL) {
 199              		.loc 1 52 5 is_stmt 1 view .LVU39
 200              		.loc 1 52 8 is_stmt 0 view .LVU40
 201 0008 A0B1     		cbz	r0, .L18
  53:Core/Src/kernel.c ****         return false;
  54:Core/Src/kernel.c ****     }
  55:Core/Src/kernel.c **** 
  56:Core/Src/kernel.c ****     // Setting up the stack from lab 2
  57:Core/Src/kernel.c ****     *(--stackPtr) = 1<<24; // xPSR
 202              		.loc 1 57 5 is_stmt 1 view .LVU41
 203              	.LVL18:
 204              		.loc 1 57 19 is_stmt 0 view .LVU42
 205 000a 4FF08072 		mov	r2, #16777216
 206 000e 40F8042C 		str	r2, [r0, #-4]
  58:Core/Src/kernel.c ****     *(--stackPtr) = (uint32_t)fncPtr; //the function name
 207              		.loc 1 58 5 is_stmt 1 view .LVU43
 208              		.loc 1 58 19 is_stmt 0 view .LVU44
 209 0012 A0F10802 		sub	r2, r0, #8
 210              	.LVL19:
 211              		.loc 1 58 19 view .LVU45
 212 0016 40F8084C 		str	r4, [r0, #-8]
  59:Core/Src/kernel.c ****     for (int i = 0; i < 14; i++) {
 213              		.loc 1 59 5 is_stmt 1 view .LVU46
 214              	.LBB6:
 215              		.loc 1 59 10 view .LVU47
 216              	.LVL20:
 217              		.loc 1 59 14 is_stmt 0 view .LVU48
 218 001a 0023     		movs	r3, #0
 219              		.loc 1 59 5 view .LVU49
 220 001c 03E0     		b	.L16
 221              	.LVL21:
ARM GAS  /var/folders/19/48sc_t714fz_96wrj2kckpy80000gn/T//ccp3Ccky.s 			page 11


 222              	.L17:
  60:Core/Src/kernel.c ****         *(--stackPtr) = 0xA; //An arbitrary number
 223              		.loc 1 60 9 is_stmt 1 discriminator 3 view .LVU50
 224              		.loc 1 60 23 is_stmt 0 discriminator 3 view .LVU51
 225 001e 0A21     		movs	r1, #10
 226 0020 42F8041D 		str	r1, [r2, #-4]!
 227              	.LVL22:
  59:Core/Src/kernel.c ****     for (int i = 0; i < 14; i++) {
 228              		.loc 1 59 30 is_stmt 1 discriminator 3 view .LVU52
 229 0024 0133     		adds	r3, r3, #1
 230              	.LVL23:
 231              	.L16:
  59:Core/Src/kernel.c ****     for (int i = 0; i < 14; i++) {
 232              		.loc 1 59 23 discriminator 1 view .LVU53
 233 0026 0D2B     		cmp	r3, #13
 234 0028 F9DD     		ble	.L17
  59:Core/Src/kernel.c ****     for (int i = 0; i < 14; i++) {
 235              		.loc 1 59 23 is_stmt 0 discriminator 1 view .LVU54
 236              	.LBE6:
  61:Core/Src/kernel.c ****     }
  62:Core/Src/kernel.c **** 
  63:Core/Src/kernel.c ****     lab3Thread.sp = stackPtr;
 237              		.loc 1 63 5 is_stmt 1 view .LVU55
 238              		.loc 1 63 19 is_stmt 0 view .LVU56
 239 002a 034B     		ldr	r3, .L20
 240              	.LVL24:
 241              		.loc 1 63 19 view .LVU57
 242 002c 1A60     		str	r2, [r3]
  64:Core/Src/kernel.c ****     lab3Thread.thread_function = fncPtr;
 243              		.loc 1 64 5 is_stmt 1 view .LVU58
 244              		.loc 1 64 32 is_stmt 0 view .LVU59
 245 002e 5C60     		str	r4, [r3, #4]
  65:Core/Src/kernel.c ****     return true;
 246              		.loc 1 65 5 is_stmt 1 view .LVU60
 247              		.loc 1 65 12 is_stmt 0 view .LVU61
 248 0030 0120     		movs	r0, #1
 249              	.LVL25:
 250              	.L15:
  66:Core/Src/kernel.c **** }
 251              		.loc 1 66 1 view .LVU62
 252 0032 10BD     		pop	{r4, pc}
 253              	.LVL26:
 254              	.L18:
  53:Core/Src/kernel.c ****     }
 255              		.loc 1 53 16 view .LVU63
 256 0034 0020     		movs	r0, #0
 257              	.LVL27:
  53:Core/Src/kernel.c ****     }
 258              		.loc 1 53 16 view .LVU64
 259 0036 FCE7     		b	.L15
 260              	.L21:
 261              		.align	2
 262              	.L20:
 263 0038 00000000 		.word	lab3Thread
 264              		.cfi_endproc
 265              	.LFE135:
 267              		.section	.text.osKernelInitialize,"ax",%progbits
ARM GAS  /var/folders/19/48sc_t714fz_96wrj2kckpy80000gn/T//ccp3Ccky.s 			page 12


 268              		.align	1
 269              		.global	osKernelInitialize
 270              		.syntax unified
 271              		.thumb
 272              		.thumb_func
 274              	osKernelInitialize:
 275              	.LFB136:
  67:Core/Src/kernel.c **** 
  68:Core/Src/kernel.c **** // Initialize a new thread
  69:Core/Src/kernel.c **** void osKernelInitialize() {
 276              		.loc 1 69 27 is_stmt 1 view -0
 277              		.cfi_startproc
 278              		@ args = 0, pretend = 0, frame = 0
 279              		@ frame_needed = 0, uses_anonymous_args = 0
 280              		@ link register save eliminated.
  70:Core/Src/kernel.c ****   MSP_INIT_VAL = *(uint32_t**) 0x0;
 281              		.loc 1 70 3 view .LVU66
 282              		.loc 1 70 18 is_stmt 0 view .LVU67
 283 0000 0023     		movs	r3, #0
 284 0002 1B68     		ldr	r3, [r3]
 285              		.loc 1 70 16 view .LVU68
 286 0004 034A     		ldr	r2, .L23
 287 0006 1360     		str	r3, [r2]
  71:Core/Src/kernel.c ****   LAST_STACK = MSP_INIT_VAL - STACK_SIZE;
 288              		.loc 1 71 3 is_stmt 1 view .LVU69
 289              		.loc 1 71 29 is_stmt 0 view .LVU70
 290 0008 A3F58053 		sub	r3, r3, #4096
 291              		.loc 1 71 14 view .LVU71
 292 000c 024A     		ldr	r2, .L23+4
 293 000e 1360     		str	r3, [r2]
  72:Core/Src/kernel.c **** }
 294              		.loc 1 72 1 view .LVU72
 295 0010 7047     		bx	lr
 296              	.L24:
 297 0012 00BF     		.align	2
 298              	.L23:
 299 0014 00000000 		.word	MSP_INIT_VAL
 300 0018 00000000 		.word	LAST_STACK
 301              		.cfi_endproc
 302              	.LFE136:
 304              		.section	.text.osKernelStart,"ax",%progbits
 305              		.align	1
 306              		.global	osKernelStart
 307              		.syntax unified
 308              		.thumb
 309              		.thumb_func
 311              	osKernelStart:
 312              	.LFB137:
  73:Core/Src/kernel.c **** 
  74:Core/Src/kernel.c **** // Start the thread
  75:Core/Src/kernel.c **** void osKernelStart() {
 313              		.loc 1 75 22 is_stmt 1 view -0
 314              		.cfi_startproc
 315              		@ args = 0, pretend = 0, frame = 0
 316              		@ frame_needed = 0, uses_anonymous_args = 0
 317              		@ link register save eliminated.
  76:Core/Src/kernel.c ****   __asm("SVC #3");
ARM GAS  /var/folders/19/48sc_t714fz_96wrj2kckpy80000gn/T//ccp3Ccky.s 			page 13


 318              		.loc 1 76 3 view .LVU74
 319              		.syntax unified
 320              	@ 76 "Core/Src/kernel.c" 1
 321 0000 03DF     		SVC #3
 322              	@ 0 "" 2
  77:Core/Src/kernel.c ****   // runFirstThread();
  78:Core/Src/kernel.c **** }...
 323              		.loc 1 78 1 is_stmt 0 view .LVU75
 324              		.thumb
 325              		.syntax unified
 326 0002 7047     		bx	lr
 327              		.cfi_endproc
 328              	.LFE137:
 330              		.global	lab3Thread
 331              		.section	.bss.lab3Thread,"aw",%nobits
 332              		.align	2
 335              	lab3Thread:
 336 0000 00000000 		.space	8
 336      00000000 
 337              		.global	nThreads
 338              		.section	.bss.nThreads,"aw",%nobits
 339              		.align	2
 342              	nThreads:
 343 0000 00000000 		.space	4
 344              		.global	LAST_STACK
 345              		.section	.bss.LAST_STACK,"aw",%nobits
 346              		.align	2
 349              	LAST_STACK:
 350 0000 00000000 		.space	4
 351              		.global	MSP_INIT_VAL
 352              		.section	.bss.MSP_INIT_VAL,"aw",%nobits
 353              		.align	2
 356              	MSP_INIT_VAL:
 357 0000 00000000 		.space	4
 358              		.text
 359              	.Letext0:
 360              		.file 3 "/Users/danielrh/Library/Application Support/Code/User/globalStorage/bmd.stm32-for-vscode/
 361              		.file 4 "/Users/danielrh/Library/Application Support/Code/User/globalStorage/bmd.stm32-for-vscode/
 362              		.file 5 "Core/Inc/kernel.h"
 363              		.file 6 "<built-in>"
ARM GAS  /var/folders/19/48sc_t714fz_96wrj2kckpy80000gn/T//ccp3Ccky.s 			page 14

